; ModuleID = '10/1184.c'
source_filename = "10/1184.c"
target datalayout = "e-m:e-p270:32:32-p271:32:32-p272:64:64-i64:64-f80:128-n8:16:32:64-S128"
target triple = "x86_64-pc-linux-gnu"

@.str = private unnamed_addr constant [3 x i8] c"%d\00", align 1

; Function Attrs: noinline nounwind uwtable
define dso_local i32 @main() #0 {
  %1 = alloca i32, align 4
  %2 = alloca [30 x i32], align 16
  %3 = alloca i32, align 4
  %4 = alloca i32, align 4
  %5 = alloca i32, align 4
  store i32 0, i32* %1, align 4
  %6 = call i32 (i8*, ...) @__isoc99_scanf(i8* getelementptr inbounds ([3 x i8], [3 x i8]* @.str, i64 0, i64 0), i32* %3)
  store i32 0, i32* %4, align 4
  br label %7

7:                                                ; preds = %16, %0
  %8 = load i32, i32* %4, align 4
  %9 = load i32, i32* %3, align 4
  %10 = icmp slt i32 %8, %9
  br i1 %10, label %11, label %19

11:                                               ; preds = %7
  %12 = load i32, i32* %4, align 4
  %13 = sext i32 %12 to i64
  %14 = getelementptr inbounds [30 x i32], [30 x i32]* %2, i64 0, i64 %13
  %15 = call i32 (i8*, ...) @__isoc99_scanf(i8* getelementptr inbounds ([3 x i8], [3 x i8]* @.str, i64 0, i64 0), i32* %14)
  br label %16

16:                                               ; preds = %11
  %17 = load i32, i32* %4, align 4
  %18 = add nsw i32 %17, 1
  store i32 %18, i32* %4, align 4
  br label %7

19:                                               ; preds = %7
  %20 = getelementptr inbounds [30 x i32], [30 x i32]* %2, i64 0, i64 0
  %21 = load i32, i32* %3, align 4
  %22 = call i32 @f(i32* %20, i32 %21)
  store i32 %22, i32* %5, align 4
  %23 = load i32, i32* %5, align 4
  %24 = call i32 (i8*, ...) @printf(i8* getelementptr inbounds ([3 x i8], [3 x i8]* @.str, i64 0, i64 0), i32 %23)
  %25 = load i32, i32* %1, align 4
  ret i32 %25
}

declare dso_local i32 @__isoc99_scanf(i8*, ...) #1

; Function Attrs: noinline nounwind uwtable
define dso_local i32 @f(i32* %0, i32 %1) #0 {
  %3 = alloca i32, align 4
  %4 = alloca i32*, align 8
  %5 = alloca i32, align 4
  store i32* %0, i32** %4, align 8
  store i32 %1, i32* %5, align 4
  %6 = load i32, i32* %5, align 4
  %7 = icmp eq i32 %6, 0
  br i1 %7, label %8, label %9

8:                                                ; preds = %2
  store i32 0, i32* %3, align 4
  br label %25

9:                                                ; preds = %2
  %10 = load i32*, i32** %4, align 8
  %11 = getelementptr inbounds i32, i32* %10, i64 1
  %12 = load i32, i32* %5, align 4
  %13 = sub nsw i32 %12, 1
  %14 = load i32*, i32** %4, align 8
  %15 = getelementptr inbounds i32, i32* %14, i64 0
  %16 = load i32, i32* %15, align 4
  %17 = call i32 @g(i32* %11, i32 %13, i32 %16)
  %18 = add nsw i32 %17, 1
  %19 = load i32*, i32** %4, align 8
  %20 = getelementptr inbounds i32, i32* %19, i64 1
  %21 = load i32, i32* %5, align 4
  %22 = sub nsw i32 %21, 1
  %23 = call i32 @f(i32* %20, i32 %22)
  %24 = call i32 @max(i32 %18, i32 %23)
  store i32 %24, i32* %3, align 4
  br label %25

25:                                               ; preds = %9, %8
  %26 = load i32, i32* %3, align 4
  ret i32 %26
}

declare dso_local i32 @printf(i8*, ...) #1

; Function Attrs: noinline nounwind uwtable
define dso_local i32 @max(i32 %0, i32 %1) #0 {
  %3 = alloca i32, align 4
  %4 = alloca i32, align 4
  store i32 %0, i32* %3, align 4
  store i32 %1, i32* %4, align 4
  %5 = load i32, i32* %3, align 4
  %6 = load i32, i32* %4, align 4
  %7 = icmp sgt i32 %5, %6
  br i1 %7, label %8, label %10

8:                                                ; preds = %2
  %9 = load i32, i32* %3, align 4
  br label %12

10:                                               ; preds = %2
  %11 = load i32, i32* %4, align 4
  br label %12

12:                                               ; preds = %10, %8
  %13 = phi i32 [ %9, %8 ], [ %11, %10 ]
  ret i32 %13
}

; Function Attrs: noinline nounwind uwtable
define dso_local i32 @g(i32* %0, i32 %1, i32 %2) #0 {
  %4 = alloca i32, align 4
  %5 = alloca i32*, align 8
  %6 = alloca i32, align 4
  %7 = alloca i32, align 4
  store i32* %0, i32** %5, align 8
  store i32 %1, i32* %6, align 4
  store i32 %2, i32* %7, align 4
  %8 = load i32, i32* %6, align 4
  %9 = icmp eq i32 %8, 0
  br i1 %9, label %10, label %11

10:                                               ; preds = %3
  store i32 0, i32* %4, align 4
  br label %52

11:                                               ; preds = %3
  %12 = load i32, i32* %6, align 4
  %13 = icmp eq i32 %12, 1
  br i1 %13, label %14, label %22

14:                                               ; preds = %11
  %15 = load i32*, i32** %5, align 8
  %16 = getelementptr inbounds i32, i32* %15, i64 0
  %17 = load i32, i32* %16, align 4
  %18 = load i32, i32* %7, align 4
  %19 = icmp sgt i32 %17, %18
  br i1 %19, label %20, label %21

20:                                               ; preds = %14
  store i32 0, i32* %4, align 4
  br label %52

21:                                               ; preds = %14
  store i32 1, i32* %4, align 4
  br label %52

22:                                               ; preds = %11
  %23 = load i32*, i32** %5, align 8
  %24 = getelementptr inbounds i32, i32* %23, i64 0
  %25 = load i32, i32* %24, align 4
  %26 = load i32, i32* %7, align 4
  %27 = icmp sgt i32 %25, %26
  br i1 %27, label %28, label %35

28:                                               ; preds = %22
  %29 = load i32*, i32** %5, align 8
  %30 = getelementptr inbounds i32, i32* %29, i64 1
  %31 = load i32, i32* %6, align 4
  %32 = sub nsw i32 %31, 1
  %33 = load i32, i32* %7, align 4
  %34 = call i32 @g(i32* %30, i32 %32, i32 %33)
  store i32 %34, i32* %4, align 4
  br label %52

35:                                               ; preds = %22
  %36 = load i32*, i32** %5, align 8
  %37 = getelementptr inbounds i32, i32* %36, i64 1
  %38 = load i32, i32* %6, align 4
  %39 = sub nsw i32 %38, 1
  %40 = load i32, i32* %7, align 4
  %41 = call i32 @g(i32* %37, i32 %39, i32 %40)
  %42 = load i32*, i32** %5, align 8
  %43 = getelementptr inbounds i32, i32* %42, i64 1
  %44 = load i32, i32* %6, align 4
  %45 = sub nsw i32 %44, 1
  %46 = load i32*, i32** %5, align 8
  %47 = getelementptr inbounds i32, i32* %46, i64 0
  %48 = load i32, i32* %47, align 4
  %49 = call i32 @g(i32* %43, i32 %45, i32 %48)
  %50 = add nsw i32 %49, 1
  %51 = call i32 @max(i32 %41, i32 %50)
  store i32 %51, i32* %4, align 4
  br label %52

52:                                               ; preds = %35, %28, %21, %20, %10
  %53 = load i32, i32* %4, align 4
  ret i32 %53
}


!llvm.module.flags = !{!0}
!llvm.ident = !{!1}

!0 = !{i32 1, !"wchar_size", i32 4}
!1 = !{!"clang version 10.0.0-4ubuntu1 "}
