; ModuleID = 'source-C-CXX/9/1184.c'
source_filename = "source-C-CXX/9/1184.c"
target datalayout = "e-m:e-p270:32:32-p271:32:32-p272:64:64-i64:64-f80:128-n8:16:32:64-S128"
target triple = "x86_64-pc-linux-gnu"

@.str = private unnamed_addr constant [3 x i8] c"%d\00", align 1

; Function Attrs: nofree nounwind sspstrong uwtable
define dso_local i32 @main() local_unnamed_addr #0 {
  %1 = alloca [30 x i32], align 16
  %2 = alloca i32, align 4
  %3 = bitcast [30 x i32]* %1 to i8*
  call void @llvm.lifetime.start.p0i8(i64 120, i8* nonnull %3) #5
  %4 = bitcast i32* %2 to i8*
  call void @llvm.lifetime.start.p0i8(i64 4, i8* nonnull %4) #5
  %5 = call i32 (i8*, ...) @__isoc99_scanf(i8* getelementptr inbounds ([3 x i8], [3 x i8]* @.str, i64 0, i64 0), i32* nonnull %2)
  %6 = load i32, i32* %2, align 4, !tbaa !5
  %7 = icmp sgt i32 %6, 0
  br i1 %7, label %8, label %16

8:                                                ; preds = %0, %8
  %9 = phi i64 [ %12, %8 ], [ 0, %0 ]
  %10 = getelementptr inbounds [30 x i32], [30 x i32]* %1, i64 0, i64 %9
  %11 = call i32 (i8*, ...) @__isoc99_scanf(i8* getelementptr inbounds ([3 x i8], [3 x i8]* @.str, i64 0, i64 0), i32* nonnull %10)
  %12 = add nuw nsw i64 %9, 1
  %13 = load i32, i32* %2, align 4, !tbaa !5
  %14 = sext i32 %13 to i64
  %15 = icmp slt i64 %12, %14
  br i1 %15, label %8, label %16, !llvm.loop !9

16:                                               ; preds = %8, %0
  %17 = phi i32 [ %6, %0 ], [ %13, %8 ]
  %18 = getelementptr inbounds [30 x i32], [30 x i32]* %1, i64 0, i64 0
  %19 = call i32 @f(i32* nonnull %18, i32 %17)
  %20 = call i32 (i8*, ...) @printf(i8* nonnull dereferenceable(1) getelementptr inbounds ([3 x i8], [3 x i8]* @.str, i64 0, i64 0), i32 %19)
  call void @llvm.lifetime.end.p0i8(i64 4, i8* nonnull %4) #5
  call void @llvm.lifetime.end.p0i8(i64 120, i8* nonnull %3) #5
  ret i32 0
}

; Function Attrs: argmemonly mustprogress nofree nosync nounwind willreturn
declare void @llvm.lifetime.start.p0i8(i64 immarg, i8* nocapture) #1

; Function Attrs: nofree nounwind
declare noundef i32 @__isoc99_scanf(i8* nocapture noundef readonly, ...) local_unnamed_addr #2

; Function Attrs: nofree nosync nounwind readonly sspstrong uwtable
define dso_local i32 @f(i32* %0, i32 %1) local_unnamed_addr #3 {
  %3 = icmp eq i32 %1, 0
  br i1 %3, label %4, label %6

4:                                                ; preds = %2, %6
  %5 = phi i32 [ %14, %6 ], [ 0, %2 ]
  ret i32 %5

6:                                                ; preds = %2
  %7 = getelementptr inbounds i32, i32* %0, i64 1
  %8 = add nsw i32 %1, -1
  %9 = load i32, i32* %0, align 4, !tbaa !5
  %10 = tail call i32 @g(i32* nonnull %7, i32 %8, i32 %9)
  %11 = add nsw i32 %10, 1
  %12 = tail call i32 @f(i32* nonnull %7, i32 %8)
  %13 = icmp slt i32 %10, %12
  %14 = select i1 %13, i32 %12, i32 %11
  br label %4
}

; Function Attrs: nofree nounwind
declare noundef i32 @printf(i8* nocapture noundef readonly, ...) local_unnamed_addr #2

; Function Attrs: argmemonly mustprogress nofree nosync nounwind willreturn
declare void @llvm.lifetime.end.p0i8(i64 immarg, i8* nocapture) #1

; Function Attrs: mustprogress nofree norecurse nosync nounwind readnone sspstrong uwtable willreturn
define dso_local i32 @max(i32 %0, i32 %1) local_unnamed_addr #4 {
  %3 = icmp sgt i32 %0, %1
  %4 = select i1 %3, i32 %0, i32 %1
  ret i32 %4
}

; Function Attrs: nofree nosync nounwind readonly sspstrong uwtable
define dso_local i32 @g(i32* %0, i32 %1, i32 %2) local_unnamed_addr #3 {
  br label %4

4:                                                ; preds = %11, %3
  %5 = phi i32* [ %0, %3 ], [ %14, %11 ]
  %6 = phi i32 [ %1, %3 ], [ %15, %11 ]
  switch i32 %6, label %11 [
    i32 0, label %16
    i32 1, label %7
  ]

7:                                                ; preds = %4
  %8 = load i32, i32* %5, align 4, !tbaa !5
  %9 = icmp sle i32 %8, %2
  %10 = zext i1 %9 to i32
  br label %16

11:                                               ; preds = %4
  %12 = load i32, i32* %5, align 4, !tbaa !5
  %13 = icmp sgt i32 %12, %2
  %14 = getelementptr inbounds i32, i32* %5, i64 1
  %15 = add nsw i32 %6, -1
  br i1 %13, label %4, label %18

16:                                               ; preds = %4, %7, %18
  %17 = phi i32 [ %23, %18 ], [ %10, %7 ], [ %6, %4 ]
  ret i32 %17

18:                                               ; preds = %11
  %19 = tail call i32 @g(i32* nonnull %14, i32 %15, i32 %2)
  %20 = tail call i32 @g(i32* nonnull %14, i32 %15, i32 %12)
  %21 = add nsw i32 %20, 1
  %22 = icmp sgt i32 %19, %21
  %23 = select i1 %22, i32 %19, i32 %21
  br label %16
}


!llvm.module.flags = !{!0, !1, !2, !3}
!llvm.ident = !{!4}

!0 = !{i32 1, !"wchar_size", i32 4}
!1 = !{i32 7, !"PIC Level", i32 2}
!2 = !{i32 7, !"PIE Level", i32 2}
!3 = !{i32 7, !"uwtable", i32 1}
!4 = !{!"clang version 13.0.0"}
!5 = !{!6, !6, i64 0}
!6 = !{!"int", !7, i64 0}
!7 = !{!"omnipotent char", !8, i64 0}
!8 = !{!"Simple C/C++ TBAA"}
!9 = distinct !{!9, !10}
!10 = !{!"llvm.loop.mustprogress"}
